target datalayout = "e-m:e-p270:32:32-p271:32:32-p272:64:64-i64:64-i128:128-f80:128-n8:16:32:64-S128"
target triple = "x86_64-pc-linux-gnu"

%struct.darktable_t = type { %struct.dt_codepath_t, i32, i32, ptr, ptr, ptr, ptr, ptr, ptr, ptr, ptr, ptr, ptr, ptr, ptr, ptr, ptr, ptr, ptr, ptr, ptr, ptr, ptr, ptr, ptr, ptr, ptr, ptr, ptr, ptr, [64 x %struct.dt_pthread_mutex_t], %struct.dt_pthread_mutex_t, %struct.dt_pthread_mutex_t, %struct.dt_pthread_mutex_t, %struct.dt_pthread_mutex_t, %struct.dt_pthread_mutex_t, ptr, ptr, ptr, ptr, ptr, ptr, ptr, ptr, ptr, ptr, ptr, ptr, ptr, %struct.dt_lua_state_t, ptr, double, ptr, i32, [47 x i32], i32, i32, ptr, ptr, %struct.dt_sys_resources_t, %struct.dt_backthumb_t, %struct.dt_gimp_t }
%struct.dt_codepath_t = type { i8, [3 x i8] }
%struct.dt_pthread_mutex_t = type { %union.pthread_mutex_t }
%union.pthread_mutex_t = type { %struct.__pthread_mutex_s }
%struct.__pthread_mutex_s = type { i32, i32, i32, i32, i32, i16, i16, %struct.__pthread_internal_list }
%struct.__pthread_internal_list = type { ptr, ptr }
%struct.dt_lua_state_t = type { i32 }
%struct.dt_sys_resources_t = type { i64, i64, ptr, ptr, i32 }
%struct.dt_backthumb_t = type { double, double, i32, i32, i32, i32 }
%struct.dt_gimp_t = type { i32, ptr, ptr, i32, i32 }
%struct.dt_image_cache_t = type { %struct.dt_cache_t }
%struct.dt_cache_t = type { %struct.dt_pthread_mutex_t, i64, i64, i64, ptr, ptr, ptr, ptr, ptr, ptr }

@darktable = external global %struct.darktable_t, align 8
@.str.1 = private unnamed_addr constant [41 x i8] c"[image cache] fill %.2f/%.2f MB (%.2f%%)\00", align 1

; Function Attrs: nounwind uwtable
define void @dt_image_cache_print(ptr noundef %0) #0 {
  %2 = alloca ptr, align 8
  store ptr %0, ptr %2, align 8, !tbaa !6
  br label %3

3:                                                ; preds = %1
  %4 = load i32, ptr getelementptr inbounds nuw (%struct.darktable_t, ptr @darktable, i32 0, i32 2), align 8, !tbaa !13
  %5 = xor i32 %4, -1
  %6 = and i32 0, %5
  %7 = icmp ne i32 %6, 0
  br i1 %7, label %33, label %8

8:                                                ; preds = %3
  %9 = load ptr, ptr %2, align 8, !tbaa !6
  %10 = getelementptr inbounds nuw %struct.dt_image_cache_t, ptr %9, i32 0, i32 0
  %11 = getelementptr inbounds nuw %struct.dt_cache_t, ptr %10, i32 0, i32 2
  %12 = load i64, ptr %11, align 8, !tbaa !129
  %13 = uitofp i64 %12 to double
  %14 = fdiv reassoc nsz arcp contract afn double %13, 0x4130000000000000
  %15 = load ptr, ptr %2, align 8, !tbaa !6
  %16 = getelementptr inbounds nuw %struct.dt_image_cache_t, ptr %15, i32 0, i32 0
  %17 = getelementptr inbounds nuw %struct.dt_cache_t, ptr %16, i32 0, i32 3
  %18 = load i64, ptr %17, align 8, !tbaa !131
  %19 = uitofp i64 %18 to double
  %20 = fdiv reassoc nsz arcp contract afn double %19, 0x4130000000000000
  %21 = load ptr, ptr %2, align 8, !tbaa !6
  %22 = getelementptr inbounds nuw %struct.dt_image_cache_t, ptr %21, i32 0, i32 0
  %23 = getelementptr inbounds nuw %struct.dt_cache_t, ptr %22, i32 0, i32 2
  %24 = load i64, ptr %23, align 8, !tbaa !129
  %25 = uitofp i64 %24 to float
  %26 = load ptr, ptr %2, align 8, !tbaa !6
  %27 = getelementptr inbounds nuw %struct.dt_image_cache_t, ptr %26, i32 0, i32 0
  %28 = getelementptr inbounds nuw %struct.dt_cache_t, ptr %27, i32 0, i32 3
  %29 = load i64, ptr %28, align 8, !tbaa !131
  %30 = uitofp i64 %29 to float
  %31 = fdiv reassoc nsz arcp contract afn float %25, %30
  %32 = fpext reassoc nsz arcp contract afn float %31 to double
  call void (ptr, ...) @dt_print_ext(ptr noundef @.str.1, double noundef %14, double noundef %20, double noundef %32)
  br label %33

33:                                               ; preds = %8, %3
  br label %34

34:                                               ; preds = %33
  ret void
}