; Function Attrs: nounwind uwtable
define void @dt_image_cache_print(ptr noundef readonly captures(none) %0) local_unnamed_addr #0 {
  %2 = getelementptr inbounds nuw i8, ptr %0, i64 48
  %3 = load i64, ptr %2, align 8, !tbaa !115
  %4 = uitofp i64 %3 to double
  %5 = fmul reassoc nsz arcp contract afn double %4, 0x3EB0000000000000
  %6 = getelementptr inbounds nuw i8, ptr %0, i64 56
  %7 = load i64, ptr %6, align 8, !tbaa !117
  %8 = uitofp i64 %7 to double
  %9 = fmul reassoc nsz arcp contract afn double %8, 0x3EB0000000000000
  %10 = uitofp i64 %3 to float
  %11 = uitofp i64 %7 to float
  %12 = fdiv reassoc nsz arcp contract afn float %10, %11
  %13 = fpext reassoc nsz arcp contract afn float %12 to double
  tail call void (ptr, ...) @dt_print_ext(ptr noundef nonnull @.str.1, double noundef %5, double noundef %9, double noundef %13) #8
  ret void
}